target datalayout = "e-m:e-p270:32:32-p271:32:32-p272:64:64-i64:64-i128:128-f80:128-n8:16:32:64-S128"
target triple = "x86_64-pc-linux-gnu"

%struct.AVFilterContext = type { ptr, ptr, ptr, ptr, ptr, i32, ptr, ptr, i32, ptr, ptr, i32, i32, ptr, ptr, ptr, ptr, i32, ptr, i32, i32 }
%struct.ESTDIFContext = type { ptr, i32, i32, i32, i32, i32, i32, i32, i32, i32, [4 x i32], [4 x i32], [4 x i32], i32, i32, i32, i32, i32, i32, ptr, ptr, [3 x ptr], [3 x ptr] }
%struct.AVFilterLink = type { ptr, ptr, ptr, ptr, i32, i32, i32, i32, %struct.AVRational, i32, i32, i32, %struct.AVChannelLayout, %struct.AVRational, ptr, i32, %struct.AVFilterFormatsConfig, %struct.AVFilterFormatsConfig }
%struct.AVChannelLayout = type { i32, i32, %union.anon.1, ptr }
%union.anon.1 = type { i64 }
%struct.AVRational = type { i32, i32 }
%struct.AVFilterFormatsConfig = type { ptr, ptr, ptr, ptr, ptr }
%struct.AVFrame = type { [8 x ptr], [8 x i32], ptr, i32, i32, i32, i32, i32, %struct.AVRational, i64, i64, %struct.AVRational, i32, ptr, i32, i32, [8 x ptr], ptr, i32, ptr, i32, i32, i32, i32, i32, i32, i32, i64, ptr, i32, ptr, ptr, i64, i64, i64, i64, ptr, %struct.AVChannelLayout, i64 }

; Function Attrs: nounwind uwtable
define internal i32 @filter_frame(ptr noundef %0, ptr noundef %1) #2 {
  %3 = alloca i32, align 4
  %4 = alloca ptr, align 8
  %5 = alloca ptr, align 8
  %6 = alloca ptr, align 8
  %7 = alloca ptr, align 8
  %8 = alloca i32, align 4
  %9 = alloca i32, align 4
  store ptr %0, ptr %4, align 8, !tbaa !24
  store ptr %1, ptr %5, align 8, !tbaa !26
  call void @llvm.lifetime.start.p0(i64 8, ptr %6) #12
  %10 = load ptr, ptr %4, align 8, !tbaa !24
  %11 = getelementptr inbounds nuw %struct.AVFilterLink, ptr %10, i32 0, i32 2
  %12 = load ptr, ptr %11, align 8, !tbaa !28
  store ptr %12, ptr %6, align 8, !tbaa !4
  call void @llvm.lifetime.start.p0(i64 8, ptr %7) #12
  %13 = load ptr, ptr %6, align 8, !tbaa !4
  %14 = getelementptr inbounds nuw %struct.AVFilterContext, ptr %13, i32 0, i32 9
  %15 = load ptr, ptr %14, align 8, !tbaa !9
  store ptr %15, ptr %7, align 8, !tbaa !22
  call void @llvm.lifetime.start.p0(i64 4, ptr %8) #12
  %16 = load ptr, ptr %7, align 8, !tbaa !22
  %17 = getelementptr inbounds nuw %struct.ESTDIFContext, ptr %16, i32 0, i32 19
  %18 = load ptr, ptr %17, align 8, !tbaa !36
  %19 = icmp ne ptr %18, null
  br i1 %19, label %24, label %20

20:                                               ; preds = %2
  %21 = load ptr, ptr %5, align 8, !tbaa !26
  %22 = load ptr, ptr %7, align 8, !tbaa !22
  %23 = getelementptr inbounds nuw %struct.ESTDIFContext, ptr %22, i32 0, i32 19
  store ptr %21, ptr %23, align 8, !tbaa !36
  store i32 0, ptr %3, align 4
  store i32 1, ptr %9, align 4
  br label %130

24:                                               ; preds = %2
  %25 = load ptr, ptr %7, align 8, !tbaa !22
  %26 = getelementptr inbounds nuw %struct.ESTDIFContext, ptr %25, i32 0, i32 3
  %27 = load i32, ptr %26, align 8, !tbaa !38
  %28 = icmp ne i32 %27, 0
  br i1 %28, label %29, label %37

29:                                               ; preds = %24
  %30 = load ptr, ptr %7, align 8, !tbaa !22
  %31 = getelementptr inbounds nuw %struct.ESTDIFContext, ptr %30, i32 0, i32 19
  %32 = load ptr, ptr %31, align 8, !tbaa !36
  %33 = getelementptr inbounds nuw %struct.AVFrame, ptr %32, i32 0, i32 21
  %34 = load i32, ptr %33, align 4, !tbaa !39
  %35 = and i32 %34, 8
  %36 = icmp ne i32 %35, 0
  br i1 %36, label %37, label %42

37:                                               ; preds = %29, %24
  %38 = load ptr, ptr %6, align 8, !tbaa !4
  %39 = getelementptr inbounds nuw %struct.AVFilterContext, ptr %38, i32 0, i32 17
  %40 = load i32, ptr %39, align 8, !tbaa !45
  %41 = icmp ne i32 %40, 0
  br i1 %41, label %42, label %68

42:                                               ; preds = %37, %29
  %43 = load ptr, ptr %7, align 8, !tbaa !22
  %44 = getelementptr inbounds nuw %struct.ESTDIFContext, ptr %43, i32 0, i32 19
  %45 = load ptr, ptr %44, align 8, !tbaa !36
  %46 = getelementptr inbounds nuw %struct.AVFrame, ptr %45, i32 0, i32 9
  %47 = load i64, ptr %46, align 8, !tbaa !46
  %48 = mul nsw i64 %47, 2
  store i64 %48, ptr %46, align 8, !tbaa !46
  %49 = load ptr, ptr %7, align 8, !tbaa !22
  %50 = getelementptr inbounds nuw %struct.ESTDIFContext, ptr %49, i32 0, i32 19
  %51 = load ptr, ptr %50, align 8, !tbaa !36
  %52 = getelementptr inbounds nuw %struct.AVFrame, ptr %51, i32 0, i32 38
  %53 = load i64, ptr %52, align 8, !tbaa !47
  %54 = mul nsw i64 %53, 2
  store i64 %54, ptr %52, align 8, !tbaa !47
  %55 = load ptr, ptr %6, align 8, !tbaa !4
  %56 = getelementptr inbounds nuw %struct.AVFilterContext, ptr %55, i32 0, i32 7
  %57 = load ptr, ptr %56, align 8, !tbaa !48
  %58 = getelementptr inbounds ptr, ptr %57, i64 0
  %59 = load ptr, ptr %58, align 8, !tbaa !24
  %60 = load ptr, ptr %7, align 8, !tbaa !22
  %61 = getelementptr inbounds nuw %struct.ESTDIFContext, ptr %60, i32 0, i32 19
  %62 = load ptr, ptr %61, align 8, !tbaa !36
  %63 = call i32 @ff_filter_frame(ptr noundef %59, ptr noundef %62)
  store i32 %63, ptr %8, align 4, !tbaa !49
  %64 = load ptr, ptr %5, align 8, !tbaa !26
  %65 = load ptr, ptr %7, align 8, !tbaa !22
  %66 = getelementptr inbounds nuw %struct.ESTDIFContext, ptr %65, i32 0, i32 19
  store ptr %64, ptr %66, align 8, !tbaa !36
  %67 = load i32, ptr %8, align 4, !tbaa !49
  store i32 %67, ptr %3, align 4
  store i32 1, ptr %9, align 4
  br label %130

68:                                               ; preds = %37
  %69 = load ptr, ptr %6, align 8, !tbaa !4
  %70 = load ptr, ptr %7, align 8, !tbaa !22
  %71 = getelementptr inbounds nuw %struct.ESTDIFContext, ptr %70, i32 0, i32 19
  %72 = load ptr, ptr %71, align 8, !tbaa !36
  %73 = load ptr, ptr %7, align 8, !tbaa !22
  %74 = getelementptr inbounds nuw %struct.ESTDIFContext, ptr %73, i32 0, i32 19
  %75 = load ptr, ptr %74, align 8, !tbaa !36
  %76 = getelementptr inbounds nuw %struct.AVFrame, ptr %75, i32 0, i32 9
  %77 = load i64, ptr %76, align 8, !tbaa !46
  %78 = mul nsw i64 %77, 2
  %79 = load ptr, ptr %7, align 8, !tbaa !22
  %80 = getelementptr inbounds nuw %struct.ESTDIFContext, ptr %79, i32 0, i32 19
  %81 = load ptr, ptr %80, align 8, !tbaa !36
  %82 = getelementptr inbounds nuw %struct.AVFrame, ptr %81, i32 0, i32 38
  %83 = load i64, ptr %82, align 8, !tbaa !47
  %84 = load ptr, ptr %7, align 8, !tbaa !22
  %85 = getelementptr inbounds nuw %struct.ESTDIFContext, ptr %84, i32 0, i32 1
  %86 = load i32, ptr %85, align 8, !tbaa !50
  %87 = icmp ne i32 %86, 0
  %88 = select i1 %87, i32 1, i32 2
  %89 = sext i32 %88 to i64
  %90 = mul nsw i64 %83, %89
  %91 = call i32 @filter(ptr noundef %69, ptr noundef %72, i64 noundef %78, i64 noundef %90)
  store i32 %91, ptr %8, align 4, !tbaa !49
  %92 = load i32, ptr %8, align 4, !tbaa !49
  %93 = icmp slt i32 %92, 0
  br i1 %93, label %99, label %94

94:                                               ; preds = %68
  %95 = load ptr, ptr %7, align 8, !tbaa !22
  %96 = getelementptr inbounds nuw %struct.ESTDIFContext, ptr %95, i32 0, i32 1
  %97 = load i32, ptr %96, align 8, !tbaa !50
  %98 = icmp eq i32 %97, 0
  br i1 %98, label %99, label %106

99:                                               ; preds = %94, %68
  %100 = load ptr, ptr %7, align 8, !tbaa !22
  %101 = getelementptr inbounds nuw %struct.ESTDIFContext, ptr %100, i32 0, i32 19
  call void @av_frame_free(ptr noundef %101)
  %102 = load ptr, ptr %5, align 8, !tbaa !26
  %103 = load ptr, ptr %7, align 8, !tbaa !22
  %104 = getelementptr inbounds nuw %struct.ESTDIFContext, ptr %103, i32 0, i32 19
  store ptr %102, ptr %104, align 8, !tbaa !36
  %105 = load i32, ptr %8, align 4, !tbaa !49
  store i32 %105, ptr %3, align 4
  store i32 1, ptr %9, align 4
  br label %130

106:                                              ; preds = %94
  %107 = load ptr, ptr %6, align 8, !tbaa !4
  %108 = load ptr, ptr %7, align 8, !tbaa !22
  %109 = getelementptr inbounds nuw %struct.ESTDIFContext, ptr %108, i32 0, i32 19
  %110 = load ptr, ptr %109, align 8, !tbaa !36
  %111 = load ptr, ptr %7, align 8, !tbaa !22
  %112 = getelementptr inbounds nuw %struct.ESTDIFContext, ptr %111, i32 0, i32 19
  %113 = load ptr, ptr %112, align 8, !tbaa !36
  %114 = getelementptr inbounds nuw %struct.AVFrame, ptr %113, i32 0, i32 9
  %115 = load i64, ptr %114, align 8, !tbaa !46
  %116 = load ptr, ptr %5, align 8, !tbaa !26
  %117 = getelementptr inbounds nuw %struct.AVFrame, ptr %116, i32 0, i32 9
  %118 = load i64, ptr %117, align 8, !tbaa !46
  %119 = add nsw i64 %115, %118
  %120 = load ptr, ptr %5, align 8, !tbaa !26
  %121 = getelementptr inbounds nuw %struct.AVFrame, ptr %120, i32 0, i32 38
  %122 = load i64, ptr %121, align 8, !tbaa !47
  %123 = call i32 @filter(ptr noundef %107, ptr noundef %110, i64 noundef %119, i64 noundef %122)
  store i32 %123, ptr %8, align 4, !tbaa !49
  %124 = load ptr, ptr %7, align 8, !tbaa !22
  %125 = getelementptr inbounds nuw %struct.ESTDIFContext, ptr %124, i32 0, i32 19
  call void @av_frame_free(ptr noundef %125)
  %126 = load ptr, ptr %5, align 8, !tbaa !26
  %127 = load ptr, ptr %7, align 8, !tbaa !22
  %128 = getelementptr inbounds nuw %struct.ESTDIFContext, ptr %127, i32 0, i32 19
  store ptr %126, ptr %128, align 8, !tbaa !36
  %129 = load i32, ptr %8, align 4, !tbaa !49
  store i32 %129, ptr %3, align 4
  store i32 1, ptr %9, align 4
  br label %130

130:                                              ; preds = %106, %99, %42, %20
  call void @llvm.lifetime.end.p0(i64 4, ptr %8) #12
  call void @llvm.lifetime.end.p0(i64 8, ptr %7) #12
  call void @llvm.lifetime.end.p0(i64 8, ptr %6) #12
  %131 = load i32, ptr %3, align 4
  ret i32 %131
}