; Function Attrs: nounwind uwtable
define internal i32 @filter_frame(ptr noundef readonly captures(none) %0, ptr noundef %1) #2 {
  %3 = getelementptr inbounds nuw i8, ptr %0, i64 16
  %4 = load ptr, ptr %3, align 8, !tbaa !20
  %5 = getelementptr inbounds nuw i8, ptr %4, i64 72
  %6 = load ptr, ptr %5, align 8, !tbaa !4
  %7 = getelementptr inbounds nuw i8, ptr %6, i64 120
  %8 = load ptr, ptr %7, align 8, !tbaa !29
  %.not = icmp eq ptr %8, null
  br i1 %.not, label %56, label %9

9:                                                ; preds = %2
  %10 = getelementptr inbounds nuw i8, ptr %6, i64 16
  %11 = load i32, ptr %10, align 8, !tbaa !32
  %.not36 = icmp eq i32 %11, 0
  br i1 %.not36, label %16, label %12

12:                                               ; preds = %9
  %13 = getelementptr inbounds nuw i8, ptr %8, i64 276
  %14 = load i32, ptr %13, align 4, !tbaa !33
  %15 = and i32 %14, 8
  %.not37 = icmp eq i32 %15, 0
  br i1 %.not37, label %19, label %16

16:                                               ; preds = %12, %9
  %17 = getelementptr inbounds nuw i8, ptr %4, i64 128
  %18 = load i32, ptr %17, align 8, !tbaa !39
  %.not38 = icmp eq i32 %18, 0
  br i1 %.not38, label %30, label %19

19:                                               ; preds = %16, %12
  %20 = getelementptr inbounds nuw i8, ptr %8, i64 136
  %21 = load i64, ptr %20, align 8, !tbaa !40
  %22 = shl nsw i64 %21, 1
  store i64 %22, ptr %20, align 8, !tbaa !40
  %23 = getelementptr inbounds nuw i8, ptr %8, i64 408
  %24 = load i64, ptr %23, align 8, !tbaa !41
  %25 = shl nsw i64 %24, 1
  store i64 %25, ptr %23, align 8, !tbaa !41
  %26 = getelementptr inbounds nuw i8, ptr %4, i64 56
  %27 = load ptr, ptr %26, align 8, !tbaa !42
  %28 = load ptr, ptr %27, align 8, !tbaa !43
  %29 = tail call i32 @ff_filter_frame(ptr noundef %28, ptr noundef nonnull %8) #11
  br label %56

30:                                               ; preds = %16
  %31 = getelementptr inbounds nuw i8, ptr %8, i64 136
  %32 = load i64, ptr %31, align 8, !tbaa !40
  %33 = shl nsw i64 %32, 1
  %34 = getelementptr inbounds nuw i8, ptr %8, i64 408
  %35 = load i64, ptr %34, align 8, !tbaa !41
  %36 = getelementptr inbounds nuw i8, ptr %6, i64 8
  %37 = load i32, ptr %36, align 8, !tbaa !45
  %.not39 = icmp eq i32 %37, 0
  %38 = zext i1 %.not39 to i64
  %39 = shl i64 %35, %38
  %40 = tail call fastcc i32 @filter(ptr noundef nonnull %4, ptr noundef nonnull %8, i64 noundef %33, i64 noundef %39)
  %41 = icmp slt i32 %40, 0
  br i1 %41, label %45, label %42

42:                                               ; preds = %30
  %43 = load i32, ptr %36, align 8, !tbaa !45
  %44 = icmp eq i32 %43, 0
  br i1 %44, label %45, label %46

45:                                               ; preds = %42, %30
  tail call void @av_frame_free(ptr noundef nonnull %7) #11
  br label %56

46:                                               ; preds = %42
  %47 = load ptr, ptr %7, align 8, !tbaa !29
  %48 = getelementptr inbounds nuw i8, ptr %47, i64 136
  %49 = load i64, ptr %48, align 8, !tbaa !40
  %50 = getelementptr inbounds nuw i8, ptr %1, i64 136
  %51 = load i64, ptr %50, align 8, !tbaa !40
  %52 = add nsw i64 %51, %49
  %53 = getelementptr inbounds nuw i8, ptr %1, i64 408
  %54 = load i64, ptr %53, align 8, !tbaa !41
  %55 = tail call fastcc i32 @filter(ptr noundef nonnull %4, ptr noundef %47, i64 noundef %52, i64 noundef %54)
  tail call void @av_frame_free(ptr noundef nonnull %7) #11
  br label %56

56:                                               ; preds = %2, %46, %45, %19
  %.0 = phi i32 [ %29, %19 ], [ %40, %45 ], [ %55, %46 ], [ 0, %2 ]
  store ptr %1, ptr %7, align 8, !tbaa !29
  ret i32 %.0
}